(lp0
(lp1
V279
p2
aV344
p3
aV345
p4
aV347
p5
aV341
p6
aV342
p7
aV343
p8
aV810
p9
aV812
p10
aV595
p11
aV719
p12
aV718
p13
aV717
p14
aV715
p15
aV714
p16
aV713
p17
aV712
p18
aV711
p19
aV915
p20
aV606
p21
aV594
p22
aV916
p23
aV911
p24
aV619
p25
aV910
p26
aV913
p27
aV298
p28
aV299
p29
aV296
p30
aV297
p31
aV294
p32
aV295
p33
aV292
p34
aV290
p35
aV291
p36
aV591
p37
aV590
p38
aV593
p39
aV592
p40
aV198
p41
aV597
p42
aV596
p43
aV195
p44
aV194
p45
aV197
p46
aV196
p47
aV270
p48
aV271
p49
aV272
p50
aV273
p51
aV274
p52
aV275
p53
aV276
p54
aV277
p55
aV278
p56
aV526
p57
aV520
p58
aV521
p59
aV523
p60
aV1015
p61
aV599
p62
aV1017
p63
aV994
p64
aV1013
p65
aV1025
p66
aV449
p67
aV448
p68
aV443
p69
aV441
p70
aV440
p71
aV447
p72
aV446
p73
aV445
p74
aV444
p75
aV108
p76
aV109
p77
aV102
p78
aV105
p79
aV902
p80
aV903
p81
aV39
p82
aV906
p83
aV904
p84
aV905
p85
aV32
p86
aV30
p87
aV37
p88
aV36
p89
aV35
p90
aV641
p91
aV640
p92
aV643
p93
aV644
p94
aV438
p95
aV436
p96
aV437
p97
aV431
p98
aV1002
p99
aV339
p100
aV338
p101
aV335
p102
aV334
p103
aV337
p104
aV336
p105
aV330
p106
aV333
p107
aV1000
p108
aV854
p109
aV818
p110
aV748
p111
aV6
p112
aV900
p113
aV99
p114
aV98
p115
aV91
p116
aV93
p117
aV94
p118
aV96
p119
aV815
p120
aV559
p121
aV555
p122
aV554
p123
aV557
p124
aV556
p125
aV551
p126
aV550
p127
aV553
p128
aV552
p129
aV614
p130
aV146
p131
aV142
p132
aV141
p133
aV612
p134
aV613
p135
aV610
p136
aV611
p137
aV616
p138
aV617
p139
aV1007
p140
aV912
p141
aV1006
p142
aV1005
p143
aV1004
p144
aV944
p145
aV945
p146
aV942
p147
aV941
p148
aV768
p149
aV685
p150
aV623
p151
aV622
p152
aV494
p153
aV490
p154
aV491
p155
aV492
p156
aV25
p157
aV26
p158
aV21
p159
aV23
p160
aV927
p161
aV29
p162
aV406
p163
aV404
p164
aV400
p165
aV933
p166
aV931
p167
aV930
p168
aV937
p169
aV629
p170
aV628
p171
aV758
p172
aV1018
p173
aV379
p174
aV378
p175
aV829
p176
aV370
p177
aV373
p178
aV377
p179
aV376
p180
aV708
p181
aV709
p182
aV707
p183
aV618
p184
aV702
p185
aV393
p186
aV392
p187
aV88
p188
aV397
p189
aV395
p190
aV83
p191
aV81
p192
aV86
p193
aV85
p194
aV797
p195
aV796
p196
aV794
p197
aV790
p198
aV798
p199
aV601
p200
aV607
p201
aV586
p202
aV587
p203
aV585
p204
aV582
p205
aV583
p206
aV580
p207
aV581
p208
aV588
p209
aV589
p210
aV244
p211
aV241
p212
aV615
p213
aV970
p214
aV925
p215
aV518
p216
aV1009
p217
aV1008
p218
aV510
p219
aV513
p220
aV514
p221
aV517
p222
aV516
p223
aV458
p224
aV621
p225
aV620
p226
aV627
p227
aV626
p228
aV625
p229
aV624
p230
aV452
p231
aV453
p232
aV456
p233
aV979
p234
aV171
p235
aV977
p236
aV975
p237
aV974
p238
aV973
p239
aV971
p240
aV978
p241
aV886
p242
aV764
p243
aV11
p244
aV10
p245
aV13
p246
aV14
p247
aV16
p248
aV19
p249
aV862
p250
aV864
p251
aV867
p252
aV884
p253
aV938
p254
aV883
p255
aV753
p256
aV881
p257
aV880
p258
aV887
p259
aV831
p260
aV885
p261
aV752
p262
aV62
p263
aV888
p264
aV1012
p265
aV1032
p266
aV950
p267
aV756
p268
aV929
p269
aV323
p270
aV320
p271
aV325
p272
aV329
p273
aV759
p274
aV208
p275
aV889
p276
aV76
p277
aV75
p278
aV74
p279
aV73
p280
aV71
p281
aV79
p282
aV78
p283
aV2
p284
aV1042
p285
aV1043
p286
aV1044
p287
aV769
p288
aV542
p289
aV540
p290
aV541
p291
aV546
p292
aV545
p293
aV8
p294
aV548
p295
aV549
p296
aV598
p297
aV995
p298
aV997
p299
aV996
p300
aV990
p301
aV993
p302
aV868
p303
aV999
p304
aV998
p305
aV121
p306
aV123
p307
aV127
p308
aV765
p309
aV1016
p310
aV1010
p311
aV1011
p312
aV417
p313
aV412
p314
aV920
p315
aV923
p316
aV418
p317
aV776
p318
aV499
p319
aV318
p320
aV313
p321
aV312
p322
aV311
p323
aV310
p324
aV317
p325
aV316
p326
aV315
p327
aV314
p328
aV832
p329
aV833
p330
aV830
p331
aV497
p332
aV836
p333
aV834
p334
aV835
p335
aV808
p336
aV725
p337
aV368
p338
aV369
p339
aV366
p340
aV367
p341
aV364
p342
aV365
p343
aV363
p344
aV360
p345
aV361
p346
aV959
p347
aV882
p348
aV380
p349
aV382
p350
aV383
p351
aV386
p352
aV387
p353
aV388
p354
aV389
p355
aV780
p356
aV605
p357
aV579
p358
aV578
p359
aV604
p360
aV572
p361
aV570
p362
aV577
p363
aV576
p364
aV575
p365
aV61
p366
aV258
p367
aV259
p368
aV65
p369
aV67
p370
aV69
p371
aV257
p372
aV603
p373
aV602
p374
aV939
p375
aV730
p376
aV508
p377
aV509
p378
aV506
p379
aV507
p380
aV504
p381
aV505
p382
aV502
p383
aV503
p384
aV500
p385
aV630
p386
aV631
p387
aV632
p388
aV633
p389
aV469
p390
aV468
p391
aV637
p392
aV465
p393
aV464
p394
aV467
p395
aV466
p396
aV461
p397
aV460
p398
aV463
p399
aV901
p400
aV167
p401
aV161
p402
aV964
p403
aV965
p404
aV966
p405
aV967
p406
aV960
p407
aV963
p408
aV968
p409
aV969
p410
aV936
p411
aV935
p412
aV908
p413
aV909
p414
aV600
p415
aV878
p416
aV876
p417
aV874
p418
aV875
p419
aV871
p420
aV890
p421
aV891
p422
aV892
p423
aV893
p424
aV894
p425
aV896
p426
aV897
p427
aV898
p428
aV899
p429
aV357
p430
aV356
p431
aV355
p432
aV354
p433
aV351
p434
aV350
p435
aV803
p436
aV802
p437
aV801
p438
aV800
p439
aV807
p440
aV359
p441
aV358
p442
aV214
p443
aV212
p444
aV210
p445
aV762
p446
aV763
p447
aV760
p448
aV761
p449
aV766
p450
aV767
p451
aV957
p452
aV956
p453
aV289
p454
aV288
p455
aV1003
p456
aV281
p457
aV280
p458
aV283
p459
aV282
p460
aV285
p461
aV284
p462
aV287
p463
aV286
p464
aV671
p465
aV673
p466
aV263
p467
aV261
p468
aV260
p469
aV267
p470
aV266
p471
aV265
p472
aV264
p473
aV1031
p474
aV269
p475
aV268
p476
aV59
p477
aV58
p478
aV54
p479
aV56
p480
aV51
p481
aV50
p482
aV52
p483
aV536
p484
aV535
p485
aV63
p486
aV533
p487
aV532
p488
aV539
p489
aV538
p490
aV987
p491
aV775
p492
aV988
p493
aV989
p494
aV774
p495
aV983
p496
aV980
p497
aV981
p498
aV986
p499
aV984
p500
aV115
p501
aV111
p502
aV113
p503
aV771
p504
aV770
p505
aV773
p506
aV772
p507
aV953
p508
aV918
p509
aV420
p510
aV423
p511
aV422
p512
aV425
p513
aV426
p514
aV308
p515
aV309
p516
aV300
p517
aV301
p518
aV302
p519
aV303
p520
aV304
p521
aV305
p522
aV306
p523
aV307
p524
aV895
p525
aV825
p526
aV824
p527
aV827
p528
aV826
p529
aV849
p530
aV823
p531
aV822
p532
aV1034
p533
aV1038
p534
aV1046
p535
aV568
p536
aV569
p537
aV751
p538
aV750
p539
aV757
p540
aV755
p541
aV754
p542
aV560
p543
aV563
p544
aV564
p545
aV565
p546
aV566
p547
aV567
p548
aV220
p549
aV1001
p550
aV1027
p551
aV1026
p552
aV1021
p553
aV1020
p554
aV1023
p555
aV1022
p556
aV1036
p557
aV1029
p558
aV391
p559
aV1037
p560
aV726
p561
aV727
p562
aV724
p563
aV390
p564
aV722
p565
aV720
p566
aV721
p567
aV1035
p568
aV728
p569
aV729
p570
aV609
p571
aV608
p572
aV976
p573
aV634
p574
aV399
p575
aV635
p576
aV749
p577
aV398
p578
aV48
p579
aV49
p580
aV47
p581
aV44
p582
aV45
p583
aV42
p584
aV43
p585
aV638
p586
aV5
p587
aV489
p588
aV488
p589
aV487
p590
aV483
p591
aV481
p592
aV480
p593
aV955
p594
aV470
p595
aV477
p596
aV478
p597
aa(lp598
I917
aV914
p599
aV917
p600
aV907
p601
aV947
p602
aV943
p603
aV170
p604
aV991
p605
aV922
p606
aV919
p607
aa(lp608
I90
aV100
p609
aV90
p610
aV92
p611
aV77
p612
aa(lp613
I137
aV107
p614
aV104
p615
aV38
p616
aV33
p617
aV31
p618
aV34
p619
aV1
p620
aV147
p621
aV144
p622
aV148
p623
aV948
p624
aV949
p625
aV946
p626
aV132
p627
aV131
p628
aV130
p629
aV137
p630
aV134
p631
aV139
p632
aV24
p633
aV27
p634
aV20
p635
aV22
p636
aV28
p637
aV932
p638
aV7
p639
aV924
p640
aV926
p641
aV176
p642
aV173
p643
aV12
p644
aV15
p645
aV17
p646
aV18
p647
aV928
p648
aV120
p649
aV124
p650
aV126
p651
aV128
p652
aV3
p653
aV952
p654
aV169
p655
aV165
p656
aV162
p657
aV934
p658
aV9
p659
aV4
p660
aV114
p661
aV117
p662
aV110
p663
aV119
p664
aV151
p665
aV150
p666
aV156
p667
aV159
p668
aV958
p669
aV46
p670
aV40
p671
aa(lp672
V1041
p673
aV1014
p674
aV434
p675
aV1030
p676
aV741
p677
aV940
p678
aV1028
p679
aV1019
p680
aV450
p681
aV972
p682
aV650
p683
aV328
p684
aV1040
p685
aV1047
p686
aV1045
p687
aV1048
p688
aV667
p689
aV498
p690
aV921
p691
aV961
p692
aV962
p693
aV873
p694
aV1033
p695
aV1039
p696
aV223
p697
aV1024
p698
aV482
p699
aa(lp700
V734
p701
aV716
p702
aV736
p703
aV738
p704
aV642
p705
aV645
p706
aV744
p707
aV745
p708
aV857
p709
aV859
p710
aV740
p711
aV742
p712
aV743
p713
aV746
p714
aV747
p715
aV689
p716
aV687
p717
aV686
p718
aV682
p719
aV705
p720
aV706
p721
aV396
p722
aV394
p723
aV249
p724
aV519
p725
aV656
p726
aV654
p727
aV253
p728
aV658
p729
aV653
p730
aV651
p731
aV655
p732
aV805
p733
aV804
p734
aV669
p735
aV664
p736
aV663
p737
aV662
p738
aV661
p739
aV660
p740
aV699
p741
aV414
p742
aV415
p743
aV413
p744
aV252
p745
aV251
p746
aV256
p747
aV254
p748
aV255
p749
aV731
p750
aV733
p751
aV732
p752
aV735
p753
aV501
p754
aV636
p755
aV879
p756
aV877
p757
aV647
p758
aV646
p759
aV648
p760
aV674
p761
aV675
p762
aV670
p763
aV672
p764
aV262
p765
aV534
p766
aV427
p767
aV737
p768
aV739
p769
aV639
p770
aV486
p771
aV485
p772
aa(lp773
I692
aV710
p774
aV459
p775
aV692
p776
aV381
p777
aV474
p778
aa(lp779
V199
p780
aV190
p781
aV193
p782
aV238
p783
aV239
p784
aV234
p785
aV235
p786
aV236
p787
aV237
p788
aV230
p789
aV231
p790
aV232
p791
aV233
p792
aV145
p793
aV138
p794
aV247
p795
aV246
p796
aV240
p797
aV243
p798
aV242
p799
aV248
p800
aV179
p801
aV177
p802
aV174
p803
aV183
p804
aV181
p805
aV186
p806
aV184
p807
aV188
p808
aV201
p809
aV200
p810
aV203
p811
aV202
p812
aV205
p813
aV204
p814
aV207
p815
aV206
p816
aV250
p817
aV166
p818
aV163
p819
aV216
p820
aV217
p821
aV215
p822
aV213
p823
aV211
p824
aV218
p825
aV219
p826
aV229
p827
aV228
p828
aV227
p829
aV226
p830
aV225
p831
aV224
p832
aV222
p833
aV221
p834
aV153
p835
aV152
p836
aV155
p837
aV158
p838
aV41
p839
aa(lp840
V64
p841
aV191
p842
aV192
p843
aV103
p844
aV101
p845
aV106
p846
aV95
p847
aV97
p848
aV143
p849
aV140
p850
aV149
p851
aV133
p852
aV136
p853
aV135
p854
aV89
p855
aV82
p856
aV80
p857
aV87
p858
aV84
p859
aV178
p860
aV175
p861
aV172
p862
aV182
p863
aV180
p864
aV187
p865
aV185
p866
aV189
p867
aV72
p868
aV70
p869
aV68
p870
aV122
p871
aV125
p872
aV129
p873
aV60
p874
aV66
p875
aV168
p876
aV164
p877
aV160
p878
aV55
p879
aV57
p880
aV53
p881
aV116
p882
aV112
p883
aV118
p884
aV154
p885
aV157
p886
aa(lp887
V472
p888
aV346
p889
aV340
p890
aV811
p891
aV813
p892
aV348
p893
aV349
p894
aV816
p895
aV817
p896
aV293
p897
aV524
p898
aV525
p899
aV527
p900
aV522
p901
aV528
p902
aV529
p903
aV442
p904
aV439
p905
aV435
p906
aV432
p907
aV433
p908
aV430
p909
aV331
p910
aV332
p911
aV856
p912
aV850
p913
aV851
p914
aV852
p915
aV819
p916
aV858
p917
aV848
p918
aV844
p919
aV814
p920
aV558
p921
aV992
p922
aV951
p923
aV688
p924
aV684
p925
aV681
p926
aV680
p927
aV683
p928
aV495
p929
aV493
p930
aV407
p931
aV405
p932
aV403
p933
aV402
p934
aV401
p935
aV409
p936
aV408
p937
aV828
p938
aV371
p939
aV372
p940
aV375
p941
aV374
p942
aV704
p943
aV700
p944
aV703
p945
aV795
p946
aV793
p947
aV792
p948
aV791
p949
aV799
p950
aV584
p951
aV245
p952
aV511
p953
aV512
p954
aV515
p955
aV451
p956
aV454
p957
aV455
p958
aV457
p959
aV657
p960
aV652
p961
aV863
p962
aV865
p963
aV866
p964
aV659
p965
aV809
p966
aV322
p967
aV321
p968
aV326
p969
aV327
p970
aV324
p971
aV209
p972
aV779
p973
aV778
p974
aV668
p975
aV666
p976
aV665
p977
aV693
p978
aV690
p979
aV691
p980
aV696
p981
aV697
p982
aV694
p983
aV695
p984
aV698
p985
aV543
p986
aV547
p987
aV544
p988
aV869
p989
aV416
p990
aV410
p991
aV411
p992
aV419
p993
aV319
p994
aV861
p995
aV496
p996
aV837
p997
aV838
p998
aV839
p999
aV362
p1000
aV384
p1001
aV385
p1002
aV784
p1003
aV785
p1004
aV786
p1005
aV787
p1006
aV781
p1007
aV782
p1008
aV783
p1009
aV788
p1010
aV789
p1011
aV860
p1012
aV573
p1013
aV571
p1014
aV574
p1015
aV462
p1016
aV872
p1017
aV870
p1018
aV649
p1019
aV353
p1020
aV352
p1021
aV806
p1022
aV678
p1023
aV679
p1024
aV676
p1025
aV677
p1026
aV701
p1027
aV537
p1028
aV531
p1029
aV530
p1030
aV982
p1031
aV777
p1032
aV985
p1033
aV429
p1034
aV428
p1035
aV421
p1036
aV424
p1037
aV855
p1038
aV847
p1039
aV846
p1040
aV845
p1041
aV843
p1042
aV842
p1043
aV841
p1044
aV840
p1045
aV821
p1046
aV853
p1047
aV820
p1048
aV954
p1049
aV561
p1050
aV562
p1051
aV723
p1052
aV484
p1053
aV473
p1054
aV471
p1055
aV476
p1056
aV475
p1057
aV479
p1058
aa.